target datalayout = "e-m:e-p270:32:32-p271:32:32-p272:64:64-i64:64-i128:128-f80:128-n8:16:32:64-S128"
target triple = "x86_64-pc-linux-gnu"

%struct.AVFilterContext = type { ptr, ptr, ptr, ptr, ptr, i32, ptr, ptr, i32, ptr, ptr, i32, i32, ptr, ptr, ptr, ptr, i32, ptr, i32, i32 }
%struct.PreMultiplyContext = type { ptr, [4 x i32], [4 x i32], [4 x i32], i32, i32, i32, i32, i32, i32, i32, i32, %struct.FFFrameSync, [4 x ptr] }
%struct.FFFrameSync = type { ptr, ptr, i32, %struct.AVRational, i64, ptr, ptr, i32, i32, i8, i8, ptr, i32, i32, i32, i32 }
%struct.AVRational = type { i32, i32 }
%struct.AVFilterLink = type { ptr, ptr, ptr, ptr, i32, i32, i32, i32, %struct.AVRational, i32, i32, i32, %struct.AVChannelLayout, %struct.AVRational, ptr, i32, %struct.AVFilterFormatsConfig, %struct.AVFilterFormatsConfig }
%struct.AVChannelLayout = type { i32, i32, %union.anon.1, ptr }
%union.anon.1 = type { i64 }
%struct.AVFilterFormatsConfig = type { ptr, ptr, ptr, ptr, ptr }
%struct.AVPixFmtDescriptor = type { ptr, i8, i8, i8, i64, [4 x %struct.AVComponentDescriptor], ptr }
%struct.AVComponentDescriptor = type { i32, i32, i32, i32, i32 }

; Function Attrs: nounwind uwtable
define internal i32 @config_input(ptr noundef %0) #1 {
  %2 = alloca i32, align 4
  %3 = alloca ptr, align 8
  %4 = alloca ptr, align 8
  %5 = alloca ptr, align 8
  %6 = alloca ptr, align 8
  %7 = alloca i32, align 4
  %8 = alloca i32, align 4
  %9 = alloca i32, align 4
  %10 = alloca i32, align 4
  store ptr %0, ptr %3, align 8, !tbaa !44
  call void @llvm.lifetime.start.p0(i64 8, ptr %4) #11
  %11 = load ptr, ptr %3, align 8, !tbaa !44
  %12 = getelementptr inbounds nuw %struct.AVFilterLink, ptr %11, i32 0, i32 2
  %13 = load ptr, ptr %12, align 8, !tbaa !142
  store ptr %13, ptr %4, align 8, !tbaa !4
  call void @llvm.lifetime.start.p0(i64 8, ptr %5) #11
  %14 = load ptr, ptr %4, align 8, !tbaa !4
  %15 = getelementptr inbounds nuw %struct.AVFilterContext, ptr %14, i32 0, i32 9
  %16 = load ptr, ptr %15, align 8, !tbaa !9
  store ptr %16, ptr %5, align 8, !tbaa !22
  call void @llvm.lifetime.start.p0(i64 8, ptr %6) #11
  %17 = load ptr, ptr %3, align 8, !tbaa !44
  %18 = getelementptr inbounds nuw %struct.AVFilterLink, ptr %17, i32 0, i32 5
  %19 = load i32, ptr %18, align 4, !tbaa !85
  %20 = call ptr @av_pix_fmt_desc_get(i32 noundef %19)
  store ptr %20, ptr %6, align 8, !tbaa !143
  call void @llvm.lifetime.start.p0(i64 4, ptr %7) #11
  call void @llvm.lifetime.start.p0(i64 4, ptr %8) #11
  call void @llvm.lifetime.start.p0(i64 4, ptr %9) #11
  %21 = load ptr, ptr %3, align 8, !tbaa !44
  %22 = getelementptr inbounds nuw %struct.AVFilterLink, ptr %21, i32 0, i32 5
  %23 = load i32, ptr %22, align 4, !tbaa !85
  %24 = call i32 @av_pix_fmt_count_planes(i32 noundef %23)
  %25 = load ptr, ptr %5, align 8, !tbaa !22
  %26 = getelementptr inbounds nuw %struct.PreMultiplyContext, ptr %25, i32 0, i32 4
  store i32 %24, ptr %26, align 8, !tbaa !135
  %27 = load ptr, ptr %5, align 8, !tbaa !22
  %28 = getelementptr inbounds nuw %struct.PreMultiplyContext, ptr %27, i32 0, i32 3
  %29 = getelementptr inbounds [4 x i32], ptr %28, i64 0, i64 0
  %30 = load ptr, ptr %3, align 8, !tbaa !44
  %31 = getelementptr inbounds nuw %struct.AVFilterLink, ptr %30, i32 0, i32 5
  %32 = load i32, ptr %31, align 4, !tbaa !85
  %33 = load ptr, ptr %3, align 8, !tbaa !44
  %34 = getelementptr inbounds nuw %struct.AVFilterLink, ptr %33, i32 0, i32 6
  %35 = load i32, ptr %34, align 8, !tbaa !60
  %36 = call i32 @av_image_fill_linesizes(ptr noundef %29, i32 noundef %32, i32 noundef %35)
  store i32 %36, ptr %9, align 4, !tbaa !37
  %37 = icmp slt i32 %36, 0
  br i1 %37, label %38, label %40

38:                                               ; preds = %1
  %39 = load i32, ptr %9, align 4, !tbaa !37
  store i32 %39, ptr %2, align 4
  store i32 1, ptr %10, align 4
  br label %160

40:                                               ; preds = %1
  %41 = load ptr, ptr %6, align 8, !tbaa !143
  %42 = getelementptr inbounds nuw %struct.AVPixFmtDescriptor, ptr %41, i32 0, i32 2
  %43 = load i8, ptr %42, align 1, !tbaa !145
  %44 = zext i8 %43 to i32
  store i32 %44, ptr %8, align 4, !tbaa !37
  %45 = load ptr, ptr %6, align 8, !tbaa !143
  %46 = getelementptr inbounds nuw %struct.AVPixFmtDescriptor, ptr %45, i32 0, i32 3
  %47 = load i8, ptr %46, align 2, !tbaa !147
  %48 = zext i8 %47 to i32
  store i32 %48, ptr %7, align 4, !tbaa !37
  %49 = load i32, ptr %7, align 4, !tbaa !37
  %50 = call i1 @llvm.is.constant.i32(i32 %49)
  br i1 %50, label %59, label %51

51:                                               ; preds = %40
  %52 = load ptr, ptr %3, align 8, !tbaa !44
  %53 = getelementptr inbounds nuw %struct.AVFilterLink, ptr %52, i32 0, i32 7
  %54 = load i32, ptr %53, align 4, !tbaa !61
  %55 = sub nsw i32 0, %54
  %56 = load i32, ptr %7, align 4, !tbaa !37
  %57 = ashr i32 %55, %56
  %58 = sub nsw i32 0, %57
  br label %69

59:                                               ; preds = %40
  %60 = load ptr, ptr %3, align 8, !tbaa !44
  %61 = getelementptr inbounds nuw %struct.AVFilterLink, ptr %60, i32 0, i32 7
  %62 = load i32, ptr %61, align 4, !tbaa !61
  %63 = load i32, ptr %7, align 4, !tbaa !37
  %64 = shl i32 1, %63
  %65 = add nsw i32 %62, %64
  %66 = sub nsw i32 %65, 1
  %67 = load i32, ptr %7, align 4, !tbaa !37
  %68 = ashr i32 %66, %67
  br label %69

69:                                               ; preds = %59, %51
  %70 = phi i32 [ %58, %51 ], [ %68, %59 ]
  %71 = load ptr, ptr %5, align 8, !tbaa !22
  %72 = getelementptr inbounds nuw %struct.PreMultiplyContext, ptr %71, i32 0, i32 2
  %73 = getelementptr inbounds [4 x i32], ptr %72, i64 0, i64 2
  store i32 %70, ptr %73, align 8, !tbaa !37
  %74 = load ptr, ptr %5, align 8, !tbaa !22
  %75 = getelementptr inbounds nuw %struct.PreMultiplyContext, ptr %74, i32 0, i32 2
  %76 = getelementptr inbounds [4 x i32], ptr %75, i64 0, i64 1
  store i32 %70, ptr %76, align 4, !tbaa !37
  %77 = load ptr, ptr %3, align 8, !tbaa !44
  %78 = getelementptr inbounds nuw %struct.AVFilterLink, ptr %77, i32 0, i32 7
  %79 = load i32, ptr %78, align 4, !tbaa !61
  %80 = load ptr, ptr %5, align 8, !tbaa !22
  %81 = getelementptr inbounds nuw %struct.PreMultiplyContext, ptr %80, i32 0, i32 2
  %82 = getelementptr inbounds [4 x i32], ptr %81, i64 0, i64 3
  store i32 %79, ptr %82, align 4, !tbaa !37
  %83 = load ptr, ptr %5, align 8, !tbaa !22
  %84 = getelementptr inbounds nuw %struct.PreMultiplyContext, ptr %83, i32 0, i32 2
  %85 = getelementptr inbounds [4 x i32], ptr %84, i64 0, i64 0
  store i32 %79, ptr %85, align 8, !tbaa !37
  %86 = load i32, ptr %8, align 4, !tbaa !37
  %87 = call i1 @llvm.is.constant.i32(i32 %86)
  br i1 %87, label %96, label %88

88:                                               ; preds = %69
  %89 = load ptr, ptr %3, align 8, !tbaa !44
  %90 = getelementptr inbounds nuw %struct.AVFilterLink, ptr %89, i32 0, i32 6
  %91 = load i32, ptr %90, align 8, !tbaa !60
  %92 = sub nsw i32 0, %91
  %93 = load i32, ptr %8, align 4, !tbaa !37
  %94 = ashr i32 %92, %93
  %95 = sub nsw i32 0, %94
  br label %106

96:                                               ; preds = %69
  %97 = load ptr, ptr %3, align 8, !tbaa !44
  %98 = getelementptr inbounds nuw %struct.AVFilterLink, ptr %97, i32 0, i32 6
  %99 = load i32, ptr %98, align 8, !tbaa !60
  %100 = load i32, ptr %8, align 4, !tbaa !37
  %101 = shl i32 1, %100
  %102 = add nsw i32 %99, %101
  %103 = sub nsw i32 %102, 1
  %104 = load i32, ptr %8, align 4, !tbaa !37
  %105 = ashr i32 %103, %104
  br label %106

106:                                              ; preds = %96, %88
  %107 = phi i32 [ %95, %88 ], [ %105, %96 ]
  %108 = load ptr, ptr %5, align 8, !tbaa !22
  %109 = getelementptr inbounds nuw %struct.PreMultiplyContext, ptr %108, i32 0, i32 1
  %110 = getelementptr inbounds [4 x i32], ptr %109, i64 0, i64 2
  store i32 %107, ptr %110, align 8, !tbaa !37
  %111 = load ptr, ptr %5, align 8, !tbaa !22
  %112 = getelementptr inbounds nuw %struct.PreMultiplyContext, ptr %111, i32 0, i32 1
  %113 = getelementptr inbounds [4 x i32], ptr %112, i64 0, i64 1
  store i32 %107, ptr %113, align 4, !tbaa !37
  %114 = load ptr, ptr %3, align 8, !tbaa !44
  %115 = getelementptr inbounds nuw %struct.AVFilterLink, ptr %114, i32 0, i32 6
  %116 = load i32, ptr %115, align 8, !tbaa !60
  %117 = load ptr, ptr %5, align 8, !tbaa !22
  %118 = getelementptr inbounds nuw %struct.PreMultiplyContext, ptr %117, i32 0, i32 1
  %119 = getelementptr inbounds [4 x i32], ptr %118, i64 0, i64 3
  store i32 %116, ptr %119, align 4, !tbaa !37
  %120 = load ptr, ptr %5, align 8, !tbaa !22
  %121 = getelementptr inbounds nuw %struct.PreMultiplyContext, ptr %120, i32 0, i32 1
  %122 = getelementptr inbounds [4 x i32], ptr %121, i64 0, i64 0
  store i32 %116, ptr %122, align 8, !tbaa !37
  %123 = load ptr, ptr %6, align 8, !tbaa !143
  %124 = getelementptr inbounds nuw %struct.AVPixFmtDescriptor, ptr %123, i32 0, i32 4
  %125 = load i64, ptr %124, align 8, !tbaa !148
  %126 = and i64 %125, 512
  %127 = icmp ne i64 %126, 0
  br i1 %127, label %128, label %129

128:                                              ; preds = %106
  br label %135

129:                                              ; preds = %106
  %130 = load ptr, ptr %6, align 8, !tbaa !143
  %131 = getelementptr inbounds nuw %struct.AVPixFmtDescriptor, ptr %130, i32 0, i32 5
  %132 = getelementptr inbounds [4 x %struct.AVComponentDescriptor], ptr %131, i64 0, i64 0
  %133 = getelementptr inbounds nuw %struct.AVComponentDescriptor, ptr %132, i32 0, i32 4
  %134 = load i32, ptr %133, align 8, !tbaa !149
  br label %135

135:                                              ; preds = %129, %128
  %136 = phi i32 [ 16, %128 ], [ %134, %129 ]
  %137 = load ptr, ptr %5, align 8, !tbaa !22
  %138 = getelementptr inbounds nuw %struct.PreMultiplyContext, ptr %137, i32 0, i32 9
  store i32 %136, ptr %138, align 4, !tbaa !139
  %139 = load ptr, ptr %5, align 8, !tbaa !22
  %140 = getelementptr inbounds nuw %struct.PreMultiplyContext, ptr %139, i32 0, i32 9
  %141 = load i32, ptr %140, align 4, !tbaa !139
  %142 = shl i32 1, %141
  %143 = sub nsw i32 %142, 1
  %144 = load ptr, ptr %5, align 8, !tbaa !22
  %145 = getelementptr inbounds nuw %struct.PreMultiplyContext, ptr %144, i32 0, i32 11
  store i32 %143, ptr %145, align 4, !tbaa !138
  %146 = load ptr, ptr %5, align 8, !tbaa !22
  %147 = getelementptr inbounds nuw %struct.PreMultiplyContext, ptr %146, i32 0, i32 9
  %148 = load i32, ptr %147, align 4, !tbaa !139
  %149 = shl i32 1, %148
  %150 = sdiv i32 %149, 2
  %151 = load ptr, ptr %5, align 8, !tbaa !22
  %152 = getelementptr inbounds nuw %struct.PreMultiplyContext, ptr %151, i32 0, i32 8
  store i32 %150, ptr %152, align 8, !tbaa !137
  %153 = load ptr, ptr %5, align 8, !tbaa !22
  %154 = getelementptr inbounds nuw %struct.PreMultiplyContext, ptr %153, i32 0, i32 9
  %155 = load i32, ptr %154, align 4, !tbaa !139
  %156 = sub nsw i32 %155, 8
  %157 = shl i32 16, %156
  %158 = load ptr, ptr %5, align 8, !tbaa !22
  %159 = getelementptr inbounds nuw %struct.PreMultiplyContext, ptr %158, i32 0, i32 10
  store i32 %157, ptr %159, align 8, !tbaa !140
  store i32 0, ptr %2, align 4
  store i32 1, ptr %10, align 4
  br label %160

160:                                              ; preds = %135, %38
  call void @llvm.lifetime.end.p0(i64 4, ptr %9) #11
  call void @llvm.lifetime.end.p0(i64 4, ptr %8) #11
  call void @llvm.lifetime.end.p0(i64 4, ptr %7) #11
  call void @llvm.lifetime.end.p0(i64 8, ptr %6) #11
  call void @llvm.lifetime.end.p0(i64 8, ptr %5) #11
  call void @llvm.lifetime.end.p0(i64 8, ptr %4) #11
  %161 = load i32, ptr %2, align 4
  ret i32 %161
}