; Function Attrs: nounwind uwtable
define internal range(i32 -2147483648, 1) i32 @config_input(ptr noundef readonly captures(none) %0) #1 {
  %2 = getelementptr inbounds nuw i8, ptr %0, i64 16
  %3 = load ptr, ptr %2, align 8, !tbaa !121
  %4 = getelementptr inbounds nuw i8, ptr %3, i64 72
  %5 = load ptr, ptr %4, align 8, !tbaa !4
  %6 = getelementptr inbounds nuw i8, ptr %0, i64 36
  %7 = load i32, ptr %6, align 4, !tbaa !72
  %8 = tail call ptr @av_pix_fmt_desc_get(i32 noundef %7) #11
  %9 = load i32, ptr %6, align 4, !tbaa !72
  %10 = tail call i32 @av_pix_fmt_count_planes(i32 noundef %9) #11
  %11 = getelementptr inbounds nuw i8, ptr %5, i64 56
  store i32 %10, ptr %11, align 8, !tbaa !115
  %12 = getelementptr inbounds nuw i8, ptr %5, i64 40
  %13 = load i32, ptr %6, align 4, !tbaa !72
  %14 = getelementptr inbounds nuw i8, ptr %0, i64 40
  %15 = load i32, ptr %14, align 8, !tbaa !53
  %16 = tail call i32 @av_image_fill_linesizes(ptr noundef nonnull %12, i32 noundef %13, i32 noundef %15) #11
  %17 = icmp slt i32 %16, 0
  br i1 %17, label %62, label %18

18:                                               ; preds = %1
  %19 = getelementptr inbounds nuw i8, ptr %8, i64 9
  %20 = load i8, ptr %19, align 1, !tbaa !122
  %21 = zext nneg i8 %20 to i32
  %22 = getelementptr inbounds nuw i8, ptr %0, i64 44
  %23 = load i32, ptr %22, align 4, !tbaa !54
  %24 = sub nsw i32 0, %23
  %25 = getelementptr inbounds nuw i8, ptr %8, i64 10
  %26 = load i8, ptr %25, align 2, !tbaa !124
  %27 = zext nneg i8 %26 to i32
  %28 = ashr i32 %24, %27
  %29 = sub nsw i32 0, %28
  %30 = getelementptr inbounds nuw i8, ptr %5, i64 24
  %31 = getelementptr inbounds nuw i8, ptr %5, i64 32
  store i32 %29, ptr %31, align 8, !tbaa !44
  %32 = getelementptr inbounds nuw i8, ptr %5, i64 28
  store i32 %29, ptr %32, align 4, !tbaa !44
  %33 = getelementptr inbounds nuw i8, ptr %0, i64 44
  %34 = load i32, ptr %33, align 4, !tbaa !54
  %35 = getelementptr inbounds nuw i8, ptr %5, i64 36
  store i32 %34, ptr %35, align 4, !tbaa !44
  store i32 %34, ptr %30, align 8, !tbaa !44
  %36 = load i32, ptr %14, align 8, !tbaa !53
  %37 = sub nsw i32 0, %36
  %38 = ashr i32 %37, %21
  %39 = sub nsw i32 0, %38
  %40 = getelementptr inbounds nuw i8, ptr %5, i64 8
  %41 = getelementptr inbounds nuw i8, ptr %5, i64 16
  store i32 %39, ptr %41, align 8, !tbaa !44
  %42 = getelementptr inbounds nuw i8, ptr %5, i64 12
  store i32 %39, ptr %42, align 4, !tbaa !44
  %43 = load i32, ptr %14, align 8, !tbaa !53
  %44 = getelementptr inbounds nuw i8, ptr %5, i64 20
  store i32 %43, ptr %44, align 4, !tbaa !44
  store i32 %43, ptr %40, align 8, !tbaa !44
  %45 = getelementptr inbounds nuw i8, ptr %8, i64 16
  %46 = load i64, ptr %45, align 8, !tbaa !125
  %47 = and i64 %46, 512
  %.not = icmp eq i64 %47, 0
  br i1 %.not, label %48, label %51

48:                                               ; preds = %18
  %49 = getelementptr inbounds nuw i8, ptr %8, i64 40
  %50 = load i32, ptr %49, align 8, !tbaa !126
  br label %51

51:                                               ; preds = %18, %48
  %52 = phi i32 [ %50, %48 ], [ 16, %18 ]
  %53 = getelementptr inbounds nuw i8, ptr %5, i64 76
  store i32 %52, ptr %53, align 4, !tbaa !128
  %notmask = shl nsw i32 -1, %52
  %54 = xor i32 %notmask, -1
  %55 = getelementptr inbounds nuw i8, ptr %5, i64 84
  store i32 %54, ptr %55, align 4, !tbaa !129
  %56 = shl nuw i32 1, %52
  %57 = sdiv i32 %56, 2
  %58 = getelementptr inbounds nuw i8, ptr %5, i64 72
  store i32 %57, ptr %58, align 8, !tbaa !118
  %59 = add nsw i32 %52, -8
  %60 = shl i32 16, %59
  %61 = getelementptr inbounds nuw i8, ptr %5, i64 80
  store i32 %60, ptr %61, align 8, !tbaa !119
  br label %62

62:                                               ; preds = %1, %51
  %.0 = phi i32 [ 0, %51 ], [ %16, %1 ]
  ret i32 %.0
}